; Function Attrs: mustprogress nounwind uwtable
define internal fastcc void @_ZL16appendTypeSuffixPN4llvm5ValueERNS_9StringRefERNS_11SmallStringILj20EEE(ptr nocapture noundef readonly %0, ptr nocapture noundef nonnull align 8 dereferenceable(16) %1, ptr noundef nonnull align 8 dereferenceable(44) %2) unnamed_addr #0 {
  %4 = getelementptr inbounds nuw i8, ptr %0, i64 8
  %5 = load ptr, ptr %4, align 8
  %6 = getelementptr inbounds nuw i8, ptr %5, i64 8
  %7 = load i32, ptr %6, align 8
  %8 = and i32 %7, 255
  %9 = icmp eq i32 %8, 3
  br i1 %9, label %28, label %10

10:                                               ; preds = %3
  %.sroa.01.0.copyload = load ptr, ptr %1, align 8
  %.sroa.22.0..sroa_idx = getelementptr inbounds i8, ptr %1, i64 8
  %.sroa.22.0.copyload = load i64, ptr %.sroa.22.0..sroa_idx, align 8
  %11 = getelementptr inbounds i8, ptr %.sroa.01.0.copyload, i64 %.sroa.22.0.copyload
  tail call void @_ZN4llvm15SmallVectorImplIcE6appendIPKcvEEvT_S5_(ptr noundef nonnull align 8 dereferenceable(24) %2, ptr noundef %.sroa.01.0.copyload, ptr noundef %11)
  %12 = load ptr, ptr %4, align 8
  %13 = getelementptr inbounds nuw i8, ptr %12, i64 8
  %14 = load i32, ptr %13, align 8
  %15 = and i32 %14, 255
  %16 = icmp eq i32 %15, 2
  %17 = tail call noundef i64 @_ZNK4llvm15SmallVectorBaseImE4sizeEv(ptr noundef nonnull align 8 dereferenceable(24) %2) #7
  %18 = add i64 %17, 1
  %19 = tail call noundef i64 @_ZNK4llvm15SmallVectorBaseImE8capacityEv(ptr noundef nonnull align 8 dereferenceable(24) %2) #7
  %.not.i.i.i.i = icmp ugt i64 %18, %19
  %. = select i1 %16, i8 102, i8 108
  br i1 %.not.i.i.i.i, label %_ZN4llvm11SmallStringILj20EEpLEc.exit.sink.split, label %_ZN4llvm11SmallStringILj20EEpLEc.exit

_ZN4llvm11SmallStringILj20EEpLEc.exit.sink.split: ; preds = %10
  %20 = getelementptr inbounds i8, ptr %2, i64 24
  tail call void @_ZN4llvm15SmallVectorBaseImE8grow_podEPvmm(ptr noundef nonnull align 8 dereferenceable(24) %2, ptr noundef nonnull %20, i64 noundef %18, i64 noundef 1) #7
  br label %_ZN4llvm11SmallStringILj20EEpLEc.exit

_ZN4llvm11SmallStringILj20EEpLEc.exit:            ; preds = %10, %_ZN4llvm11SmallStringILj20EEpLEc.exit.sink.split
  %21 = load ptr, ptr %2, align 8
  %22 = tail call noundef i64 @_ZNK4llvm15SmallVectorBaseImE4sizeEv(ptr noundef nonnull align 8 dereferenceable(24) %2) #7
  %23 = getelementptr inbounds i8, ptr %21, i64 %22
  store i8 %., ptr %23, align 1
  %24 = tail call noundef i64 @_ZNK4llvm15SmallVectorBaseImE4sizeEv(ptr noundef nonnull align 8 dereferenceable(24) %2) #7
  %25 = add i64 %24, 1
  tail call void @_ZN4llvm15SmallVectorBaseImE8set_sizeEm(ptr noundef nonnull align 8 dereferenceable(24) %2, i64 noundef %25) #7
  %26 = load ptr, ptr %2, align 8
  %27 = tail call noundef i64 @_ZNK4llvm15SmallVectorBaseImE4sizeEv(ptr noundef nonnull align 8 dereferenceable(24) %2) #7
  store ptr %26, ptr %1, align 8
  store i64 %27, ptr %.sroa.22.0..sroa_idx, align 8
  br label %28

28:                                               ; preds = %_ZN4llvm11SmallStringILj20EEpLEc.exit, %3
  ret void
}